target datalayout = "e-m:e-p270:32:32-p271:32:32-p272:64:64-i64:64-i128:128-f80:128-n8:16:32:64-S128"
target triple = "x86_64-pc-linux-gnu"

%class.combined_solver_factory = type { %class.solver_factory, %class.scoped_ptr, %class.scoped_ptr }
%class.solver_factory = type { ptr }
%class.scoped_ptr = type { ptr }

@_ZTV14solver_factory = linkonce_odr hidden unnamed_addr constant { [5 x ptr] } { [5 x ptr] [ptr null, ptr @_ZTI14solver_factory, ptr @_ZN14solver_factoryD2Ev, ptr @_ZN14solver_factoryD0Ev, ptr @__cxa_pure_virtual] }, comdat, align 8

; Function Attrs: noinline noreturn nounwind uwtable
define linkonce_odr hidden void @__clang_call_terminate(ptr noundef %0) #10 comdat {
  %2 = call ptr @__cxa_begin_catch(ptr %0) #3
  call void @_ZSt9terminatev() #20
  unreachable
}

; Function Attrs: mustprogress uwtable
define linkonce_odr hidden void @_Z7deallocI14solver_factoryEvPT_(ptr noundef %0) #4 comdat {
  %2 = alloca ptr, align 8
  store ptr %0, ptr %2, align 8, !tbaa !43
  %3 = load ptr, ptr %2, align 8, !tbaa !43
  %4 = icmp eq ptr %3, null
  br i1 %4, label %5, label %6

5:                                                ; preds = %1
  br label %12

6:                                                ; preds = %1
  %7 = load ptr, ptr %2, align 8, !tbaa !43
  %8 = load ptr, ptr %7, align 8, !tbaa !12
  %9 = getelementptr inbounds ptr, ptr %8, i64 0
  %10 = load ptr, ptr %9, align 8
  call void %10(ptr noundef nonnull align 8 dereferenceable(8) %7) #3
  %11 = load ptr, ptr %2, align 8, !tbaa !43
  call void @_ZN6memory10deallocateEPv(ptr noundef %11)
  br label %12

12:                                               ; preds = %6, %5
  ret void
}

; Function Attrs: mustprogress nounwind uwtable
define linkonce_odr hidden void @_ZN14solver_factoryD2Ev(ptr noundef nonnull align 8 dereferenceable(8) %0) unnamed_addr #5 comdat align 2 {
  %2 = alloca ptr, align 8
  store ptr %0, ptr %2, align 8, !tbaa !43
  ret void
}

; Function Attrs: mustprogress nounwind uwtable
define linkonce_odr hidden void @_ZN10scoped_ptrI14solver_factoryED2Ev(ptr noundef nonnull align 8 dereferenceable(8) %0) unnamed_addr #5 comdat align 2 personality ptr @__gxx_personality_v0 {
  %2 = alloca ptr, align 8
  store ptr %0, ptr %2, align 8, !tbaa !213
  %3 = load ptr, ptr %2, align 8
  %4 = getelementptr inbounds nuw %class.scoped_ptr, ptr %3, i32 0, i32 0
  %5 = load ptr, ptr %4, align 8, !tbaa !215
  invoke void @_Z7deallocI14solver_factoryEvPT_(ptr noundef %5)
          to label %6 unwind label %7

6:                                                ; preds = %1
  ret void

7:                                                ; preds = %1
  %8 = landingpad { ptr, i32 }
          catch ptr null
  %9 = extractvalue { ptr, i32 } %8, 0
  call void @__clang_call_terminate(ptr %9) #20
  unreachable
}

; Function Attrs: mustprogress nounwind uwtable
define linkonce_odr hidden void @_ZN10scoped_ptrI14solver_factoryEC2EPS0_(ptr noundef nonnull align 8 dereferenceable(8) %0, ptr noundef %1) unnamed_addr #5 comdat align 2 {
  %3 = alloca ptr, align 8
  %4 = alloca ptr, align 8
  store ptr %0, ptr %3, align 8, !tbaa !213
  store ptr %1, ptr %4, align 8, !tbaa !43
  %5 = load ptr, ptr %3, align 8
  %6 = getelementptr inbounds nuw %class.scoped_ptr, ptr %5, i32 0, i32 0
  %7 = load ptr, ptr %4, align 8, !tbaa !43
  store ptr %7, ptr %6, align 8, !tbaa !215
  ret void
}

; Function Attrs: inlinehint mustprogress nounwind uwtable
define linkonce_odr hidden void @_ZN14solver_factoryC2Ev(ptr noundef nonnull align 8 dereferenceable(8) %0) unnamed_addr #6 comdat align 2 {
  %2 = alloca ptr, align 8
  store ptr %0, ptr %2, align 8, !tbaa !43
  %3 = load ptr, ptr %2, align 8
  store ptr getelementptr inbounds inrange(-16, 24) ({ [5 x ptr] }, ptr @_ZTV14solver_factory, i32 0, i32 0, i32 2), ptr %3, align 8, !tbaa !12
  ret void
}

; Function Attrs: mustprogress uwtable
define linkonce_odr hidden void @_ZN23combined_solver_factoryC2EP14solver_factoryS1_(ptr noundef nonnull align 8 dereferenceable(24) %0, ptr noundef %1, ptr noundef %2) unnamed_addr #4 comdat align 2 personality ptr @__gxx_personality_v0 {
  %4 = alloca ptr, align 8
  %5 = alloca ptr, align 8
  %6 = alloca ptr, align 8
  %7 = alloca ptr, align 8
  %8 = alloca i32, align 4
  store ptr %0, ptr %4, align 8, !tbaa !45
  store ptr %1, ptr %5, align 8, !tbaa !43
  store ptr %2, ptr %6, align 8, !tbaa !43
  %9 = load ptr, ptr %4, align 8
  call void @_ZN14solver_factoryC2Ev(ptr noundef nonnull align 8 dereferenceable(8) %9) #3
  store ptr getelementptr inbounds inrange(-16, 24) ({ [5 x ptr] }, ptr @_ZTV23combined_solver_factory, i32 0, i32 0, i32 2), ptr %9, align 8, !tbaa !12
  %10 = getelementptr inbounds nuw %class.combined_solver_factory, ptr %9, i32 0, i32 1
  %11 = load ptr, ptr %5, align 8, !tbaa !43
  invoke void @_ZN10scoped_ptrI14solver_factoryEC2EPS0_(ptr noundef nonnull align 8 dereferenceable(8) %10, ptr noundef %11)
          to label %12 unwind label %16

12:                                               ; preds = %3
  %13 = getelementptr inbounds nuw %class.combined_solver_factory, ptr %9, i32 0, i32 2
  %14 = load ptr, ptr %6, align 8, !tbaa !43
  invoke void @_ZN10scoped_ptrI14solver_factoryEC2EPS0_(ptr noundef nonnull align 8 dereferenceable(8) %13, ptr noundef %14)
          to label %15 unwind label %20

15:                                               ; preds = %12
  ret void

16:                                               ; preds = %3
  %17 = landingpad { ptr, i32 }
          cleanup
  %18 = extractvalue { ptr, i32 } %17, 0
  store ptr %18, ptr %7, align 8
  %19 = extractvalue { ptr, i32 } %17, 1
  store i32 %19, ptr %8, align 4
  br label %24

20:                                               ; preds = %12
  %21 = landingpad { ptr, i32 }
          cleanup
  %22 = extractvalue { ptr, i32 } %21, 0
  store ptr %22, ptr %7, align 8
  %23 = extractvalue { ptr, i32 } %21, 1
  store i32 %23, ptr %8, align 4
  call void @_ZN10scoped_ptrI14solver_factoryED2Ev(ptr noundef nonnull align 8 dereferenceable(8) %10) #3
  br label %24

24:                                               ; preds = %20, %16
  call void @_ZN14solver_factoryD2Ev(ptr noundef nonnull align 8 dereferenceable(8) %9) #3
  br label %25

25:                                               ; preds = %24
  %26 = load ptr, ptr %7, align 8
  %27 = load i32, ptr %8, align 4
  %28 = insertvalue { ptr, i32 } poison, ptr %26, 0
  %29 = insertvalue { ptr, i32 } %28, i32 %27, 1
  resume { ptr, i32 } %29
}

; Function Attrs: mustprogress uwtable
define hidden noundef ptr @_Z26mk_combined_solver_factoryP14solver_factoryS0_(ptr noundef %0, ptr noundef %1) #4 {
  %3 = alloca ptr, align 8
  %4 = alloca ptr, align 8
  store ptr %0, ptr %3, align 8, !tbaa !43
  store ptr %1, ptr %4, align 8, !tbaa !43
  %5 = call noalias noundef ptr @_ZN6memory8allocateEm(i64 noundef 24)
  %6 = load ptr, ptr %3, align 8, !tbaa !43
  %7 = load ptr, ptr %4, align 8, !tbaa !43
  call void @_ZN23combined_solver_factoryC2EP14solver_factoryS1_(ptr noundef nonnull align 8 dereferenceable(24) %5, ptr noundef %6, ptr noundef %7)
  ret ptr %5
}