; Function Attrs: mustprogress uwtable
define hidden noalias noundef ptr @_Z26mk_combined_solver_factoryP14solver_factoryS0_(ptr noundef %0, ptr noundef %1) local_unnamed_addr #3 personality ptr @__gxx_personality_v0 {
  %3 = tail call noalias noundef ptr @_ZN6memory8allocateEm(i64 noundef 24)
  store ptr getelementptr inbounds nuw inrange(-16, 24) (i8, ptr @_ZTV23combined_solver_factory, i64 16), ptr %3, align 8, !tbaa !3
  %4 = getelementptr inbounds nuw i8, ptr %3, i64 8
  store ptr %0, ptr %4, align 8, !tbaa !41
  %5 = getelementptr inbounds nuw i8, ptr %3, i64 16
  store ptr %1, ptr %5, align 8, !tbaa !41
  ret ptr %3
}